target datalayout = "e-m:e-p270:32:32-p271:32:32-p272:64:64-i64:64-i128:128-f80:128-n8:16:32:64-S128"
target triple = "x86_64-pc-linux-gnu"

; Function Attrs: mustprogress nounwind uwtable
define internal void @_ZL15integrate_tablePKffiiiPdS1_(ptr noundef %0, float noundef %1, i32 noundef %2, i32 noundef %3, i32 noundef %4, ptr noundef %5, ptr noundef %6) #0 {
  %8 = alloca ptr, align 8
  %9 = alloca float, align 4
  %10 = alloca i32, align 4
  %11 = alloca i32, align 4
  %12 = alloca i32, align 4
  %13 = alloca ptr, align 8
  %14 = alloca ptr, align 8
  %15 = alloca double, align 8
  %16 = alloca double, align 8
  %17 = alloca double, align 8
  %18 = alloca double, align 8
  %19 = alloca double, align 8
  %20 = alloca double, align 8
  %21 = alloca i32, align 4
  %22 = alloca double, align 8
  %23 = alloca double, align 8
  %24 = alloca double, align 8
  %25 = alloca double, align 8
  %26 = alloca double, align 8
  %27 = alloca double, align 8
  %28 = alloca double, align 8
  %29 = alloca double, align 8
  %30 = alloca i32, align 4
  %31 = alloca double, align 8
  %32 = alloca double, align 8
  %33 = alloca double, align 8
  %34 = alloca double, align 8
  store ptr %0, ptr %8, align 8, !tbaa !281
  store float %1, ptr %9, align 4, !tbaa !186
  store i32 %2, ptr %10, align 4, !tbaa !94
  store i32 %3, ptr %11, align 4, !tbaa !94
  store i32 %4, ptr %12, align 4, !tbaa !94
  store ptr %5, ptr %13, align 8, !tbaa !407
  store ptr %6, ptr %14, align 8, !tbaa !407
  call void @llvm.lifetime.start.p0(i64 8, ptr %15) #16
  %35 = load float, ptr %9, align 4, !tbaa !186
  %36 = fpext float %35 to double
  %37 = fdiv double 1.000000e+00, %36
  store double %37, ptr %15, align 8, !tbaa !191
  call void @llvm.lifetime.start.p0(i64 8, ptr %16) #16
  %38 = load double, ptr %15, align 8, !tbaa !191
  %39 = load double, ptr %15, align 8, !tbaa !191
  %40 = fmul double %38, %39
  store double %40, ptr %16, align 8, !tbaa !191
  call void @llvm.lifetime.start.p0(i64 8, ptr %17) #16
  %41 = load double, ptr %15, align 8, !tbaa !191
  %42 = load double, ptr %16, align 8, !tbaa !191
  %43 = fmul double %41, %42
  store double %43, ptr %17, align 8, !tbaa !191
  call void @llvm.lifetime.start.p0(i64 8, ptr %18) #16
  %44 = load i32, ptr %10, align 4, !tbaa !94
  %45 = icmp eq i32 %44, 0
  %46 = select i1 %45, double 6.000000e+00, double 1.200000e+01
  store double %46, ptr %18, align 8, !tbaa !191
  call void @llvm.lifetime.start.p0(i64 8, ptr %19) #16
  store double 0.000000e+00, ptr %19, align 8, !tbaa !191
  call void @llvm.lifetime.start.p0(i64 8, ptr %20) #16
  store double 0.000000e+00, ptr %20, align 8, !tbaa !191
  call void @llvm.lifetime.start.p0(i64 4, ptr %21) #16
  %47 = load i32, ptr %11, align 4, !tbaa !94
  store i32 %47, ptr %21, align 4, !tbaa !94
  br label %48

48:                                               ; preds = %198, %7
  %49 = load i32, ptr %21, align 4, !tbaa !94
  %50 = load i32, ptr %12, align 4, !tbaa !94
  %51 = icmp slt i32 %49, %50
  br i1 %51, label %53, label %52

52:                                               ; preds = %48
  call void @llvm.lifetime.end.p0(i64 4, ptr %21) #16
  br label %201

53:                                               ; preds = %48
  call void @llvm.lifetime.start.p0(i64 8, ptr %22) #16
  %54 = load i32, ptr %21, align 4, !tbaa !94
  %55 = sitofp i32 %54 to double
  %56 = load double, ptr %15, align 8, !tbaa !191
  %57 = fmul double %55, %56
  store double %57, ptr %22, align 8, !tbaa !191
  call void @llvm.lifetime.start.p0(i64 8, ptr %23) #16
  %58 = load double, ptr %17, align 8, !tbaa !191
  store double %58, ptr %23, align 8, !tbaa !191
  call void @llvm.lifetime.start.p0(i64 8, ptr %24) #16
  %59 = load double, ptr %16, align 8, !tbaa !191
  %60 = fmul double 2.000000e+00, %59
  %61 = load double, ptr %22, align 8, !tbaa !191
  %62 = fmul double %60, %61
  store double %62, ptr %24, align 8, !tbaa !191
  call void @llvm.lifetime.start.p0(i64 8, ptr %25) #16
  %63 = load double, ptr %15, align 8, !tbaa !191
  %64 = load double, ptr %22, align 8, !tbaa !191
  %65 = fmul double %63, %64
  %66 = load double, ptr %22, align 8, !tbaa !191
  %67 = fmul double %65, %66
  store double %67, ptr %25, align 8, !tbaa !191
  call void @llvm.lifetime.start.p0(i64 8, ptr %26) #16
  %68 = load double, ptr %17, align 8, !tbaa !191
  store double %68, ptr %26, align 8, !tbaa !191
  call void @llvm.lifetime.start.p0(i64 8, ptr %27) #16
  %69 = load double, ptr %16, align 8, !tbaa !191
  %70 = fmul double 3.000000e+00, %69
  %71 = load double, ptr %22, align 8, !tbaa !191
  %72 = fmul double %70, %71
  store double %72, ptr %27, align 8, !tbaa !191
  call void @llvm.lifetime.start.p0(i64 8, ptr %28) #16
  %73 = load double, ptr %15, align 8, !tbaa !191
  %74 = fmul double 3.000000e+00, %73
  %75 = load double, ptr %22, align 8, !tbaa !191
  %76 = fmul double %74, %75
  %77 = load double, ptr %22, align 8, !tbaa !191
  %78 = fmul double %76, %77
  store double %78, ptr %28, align 8, !tbaa !191
  call void @llvm.lifetime.start.p0(i64 8, ptr %29) #16
  %79 = load double, ptr %22, align 8, !tbaa !191
  %80 = load double, ptr %22, align 8, !tbaa !191
  %81 = fmul double %79, %80
  %82 = load double, ptr %22, align 8, !tbaa !191
  %83 = fmul double %81, %82
  store double %83, ptr %29, align 8, !tbaa !191
  call void @llvm.lifetime.start.p0(i64 4, ptr %30) #16
  %84 = load i32, ptr %21, align 4, !tbaa !94
  %85 = mul nsw i32 8, %84
  %86 = load i32, ptr %10, align 4, !tbaa !94
  %87 = add nsw i32 %85, %86
  store i32 %87, ptr %30, align 4, !tbaa !94
  call void @llvm.lifetime.start.p0(i64 8, ptr %31) #16
  %88 = load ptr, ptr %8, align 8, !tbaa !281
  %89 = load i32, ptr %30, align 4, !tbaa !94
  %90 = sext i32 %89 to i64
  %91 = getelementptr inbounds float, ptr %88, i64 %90
  %92 = load float, ptr %91, align 4, !tbaa !186
  %93 = fpext float %92 to double
  store double %93, ptr %31, align 8, !tbaa !191
  call void @llvm.lifetime.start.p0(i64 8, ptr %32) #16
  %94 = load ptr, ptr %8, align 8, !tbaa !281
  %95 = load i32, ptr %30, align 4, !tbaa !94
  %96 = add nsw i32 %95, 1
  %97 = sext i32 %96 to i64
  %98 = getelementptr inbounds float, ptr %94, i64 %97
  %99 = load float, ptr %98, align 4, !tbaa !186
  %100 = fpext float %99 to double
  store double %100, ptr %32, align 8, !tbaa !191
  call void @llvm.lifetime.start.p0(i64 8, ptr %33) #16
  %101 = load ptr, ptr %8, align 8, !tbaa !281
  %102 = load i32, ptr %30, align 4, !tbaa !94
  %103 = add nsw i32 %102, 2
  %104 = sext i32 %103 to i64
  %105 = getelementptr inbounds float, ptr %101, i64 %104
  %106 = load float, ptr %105, align 4, !tbaa !186
  %107 = fpext float %106 to double
  store double %107, ptr %33, align 8, !tbaa !191
  call void @llvm.lifetime.start.p0(i64 8, ptr %34) #16
  %108 = load ptr, ptr %8, align 8, !tbaa !281
  %109 = load i32, ptr %30, align 4, !tbaa !94
  %110 = add nsw i32 %109, 3
  %111 = sext i32 %110 to i64
  %112 = getelementptr inbounds float, ptr %108, i64 %111
  %113 = load float, ptr %112, align 4, !tbaa !186
  %114 = fpext float %113 to double
  store double %114, ptr %34, align 8, !tbaa !191
  %115 = load double, ptr %31, align 8, !tbaa !191
  %116 = load double, ptr %23, align 8, !tbaa !191
  %117 = fdiv double %116, 3.000000e+00
  %118 = load double, ptr %24, align 8, !tbaa !191
  %119 = fdiv double %118, 2.000000e+00
  %120 = fadd double %117, %119
  %121 = load double, ptr %25, align 8, !tbaa !191
  %122 = fadd double %120, %121
  %123 = load double, ptr %32, align 8, !tbaa !191
  %124 = load double, ptr %23, align 8, !tbaa !191
  %125 = fdiv double %124, 4.000000e+00
  %126 = load double, ptr %24, align 8, !tbaa !191
  %127 = fdiv double %126, 3.000000e+00
  %128 = fadd double %125, %127
  %129 = load double, ptr %25, align 8, !tbaa !191
  %130 = fdiv double %129, 2.000000e+00
  %131 = fadd double %128, %130
  %132 = fmul double %123, %131
  %133 = call double @llvm.fmuladd.f64(double %115, double %122, double %132)
  %134 = load double, ptr %33, align 8, !tbaa !191
  %135 = load double, ptr %23, align 8, !tbaa !191
  %136 = fdiv double %135, 5.000000e+00
  %137 = load double, ptr %24, align 8, !tbaa !191
  %138 = fdiv double %137, 4.000000e+00
  %139 = fadd double %136, %138
  %140 = load double, ptr %25, align 8, !tbaa !191
  %141 = fdiv double %140, 3.000000e+00
  %142 = fadd double %139, %141
  %143 = call double @llvm.fmuladd.f64(double %134, double %142, double %133)
  %144 = load double, ptr %34, align 8, !tbaa !191
  %145 = load double, ptr %23, align 8, !tbaa !191
  %146 = fdiv double %145, 6.000000e+00
  %147 = load double, ptr %24, align 8, !tbaa !191
  %148 = fdiv double %147, 5.000000e+00
  %149 = fadd double %146, %148
  %150 = load double, ptr %25, align 8, !tbaa !191
  %151 = fdiv double %150, 4.000000e+00
  %152 = fadd double %149, %151
  %153 = call double @llvm.fmuladd.f64(double %144, double %152, double %143)
  %154 = load double, ptr %19, align 8, !tbaa !191
  %155 = fadd double %154, %153
  store double %155, ptr %19, align 8, !tbaa !191
  %156 = load double, ptr %32, align 8, !tbaa !191
  %157 = load double, ptr %26, align 8, !tbaa !191
  %158 = fdiv double %157, 4.000000e+00
  %159 = load double, ptr %27, align 8, !tbaa !191
  %160 = fdiv double %159, 3.000000e+00
  %161 = fadd double %158, %160
  %162 = load double, ptr %28, align 8, !tbaa !191
  %163 = fdiv double %162, 2.000000e+00
  %164 = fadd double %161, %163
  %165 = load double, ptr %29, align 8, !tbaa !191
  %166 = fadd double %164, %165
  %167 = load double, ptr %33, align 8, !tbaa !191
  %168 = fmul double 2.000000e+00, %167
  %169 = load double, ptr %26, align 8, !tbaa !191
  %170 = fdiv double %169, 5.000000e+00
  %171 = load double, ptr %27, align 8, !tbaa !191
  %172 = fdiv double %171, 4.000000e+00
  %173 = fadd double %170, %172
  %174 = load double, ptr %28, align 8, !tbaa !191
  %175 = fdiv double %174, 3.000000e+00
  %176 = fadd double %173, %175
  %177 = load double, ptr %29, align 8, !tbaa !191
  %178 = fdiv double %177, 2.000000e+00
  %179 = fadd double %176, %178
  %180 = fmul double %168, %179
  %181 = call double @llvm.fmuladd.f64(double %156, double %166, double %180)
  %182 = load double, ptr %34, align 8, !tbaa !191
  %183 = fmul double 3.000000e+00, %182
  %184 = load double, ptr %26, align 8, !tbaa !191
  %185 = fdiv double %184, 6.000000e+00
  %186 = load double, ptr %27, align 8, !tbaa !191
  %187 = fdiv double %186, 5.000000e+00
  %188 = fadd double %185, %187
  %189 = load double, ptr %28, align 8, !tbaa !191
  %190 = fdiv double %189, 4.000000e+00
  %191 = fadd double %188, %190
  %192 = load double, ptr %29, align 8, !tbaa !191
  %193 = fdiv double %192, 3.000000e+00
  %194 = fadd double %191, %193
  %195 = call double @llvm.fmuladd.f64(double %183, double %194, double %181)
  %196 = load double, ptr %20, align 8, !tbaa !191
  %197 = fadd double %196, %195
  store double %197, ptr %20, align 8, !tbaa !191
  call void @llvm.lifetime.end.p0(i64 8, ptr %34) #16
  call void @llvm.lifetime.end.p0(i64 8, ptr %33) #16
  call void @llvm.lifetime.end.p0(i64 8, ptr %32) #16
  call void @llvm.lifetime.end.p0(i64 8, ptr %31) #16
  call void @llvm.lifetime.end.p0(i64 4, ptr %30) #16
  call void @llvm.lifetime.end.p0(i64 8, ptr %29) #16
  call void @llvm.lifetime.end.p0(i64 8, ptr %28) #16
  call void @llvm.lifetime.end.p0(i64 8, ptr %27) #16
  call void @llvm.lifetime.end.p0(i64 8, ptr %26) #16
  call void @llvm.lifetime.end.p0(i64 8, ptr %25) #16
  call void @llvm.lifetime.end.p0(i64 8, ptr %24) #16
  call void @llvm.lifetime.end.p0(i64 8, ptr %23) #16
  call void @llvm.lifetime.end.p0(i64 8, ptr %22) #16
  br label %198

198:                                              ; preds = %53
  %199 = load i32, ptr %21, align 4, !tbaa !94
  %200 = add nsw i32 %199, 1
  store i32 %200, ptr %21, align 4, !tbaa !94
  br label %48, !llvm.loop !409

201:                                              ; preds = %52
  %202 = load double, ptr %19, align 8, !tbaa !191
  %203 = fmul double 0x402921FB54442D18, %202
  %204 = load double, ptr %18, align 8, !tbaa !191
  %205 = fmul double %203, %204
  %206 = load ptr, ptr %13, align 8, !tbaa !407
  store double %205, ptr %206, align 8, !tbaa !191
  %207 = load double, ptr %20, align 8, !tbaa !191
  %208 = fmul double 0x402921FB54442D18, %207
  %209 = load double, ptr %18, align 8, !tbaa !191
  %210 = fmul double %208, %209
  %211 = load ptr, ptr %14, align 8, !tbaa !407
  store double %210, ptr %211, align 8, !tbaa !191
  call void @llvm.lifetime.end.p0(i64 8, ptr %20) #16
  call void @llvm.lifetime.end.p0(i64 8, ptr %19) #16
  call void @llvm.lifetime.end.p0(i64 8, ptr %18) #16
  call void @llvm.lifetime.end.p0(i64 8, ptr %17) #16
  call void @llvm.lifetime.end.p0(i64 8, ptr %16) #16
  call void @llvm.lifetime.end.p0(i64 8, ptr %15) #16
  ret void
}