; Function Attrs: mustprogress nofree norecurse nosync nounwind memory(argmem: readwrite) uwtable
define internal fastcc void @_ZL15integrate_tablePKffiiiPdS1_(ptr noundef readonly captures(none) %0, float noundef %1, i32 noundef range(i32 0, 5) %2, i32 noundef %3, i32 noundef %4, ptr noundef nonnull writeonly captures(none) %5, ptr noundef nonnull writeonly captures(none) %6) unnamed_addr #12 {
  %8 = fpext float %1 to double
  %9 = fdiv double 1.000000e+00, %8
  %10 = icmp slt i32 %3, %4
  br i1 %10, label %.lr.ph, label %._crit_edge

.lr.ph:                                           ; preds = %7
  %11 = fmul double %9, %9
  %12 = fmul double %9, %11
  %13 = fmul double %11, 2.000000e+00
  %14 = fmul double %11, 3.000000e+00
  %15 = fmul double %9, 3.000000e+00
  %16 = fdiv double %12, 3.000000e+00
  %17 = fmul double %12, 2.500000e-01
  %18 = fdiv double %12, 5.000000e+00
  %19 = fdiv double %12, 6.000000e+00
  %20 = sext i32 %3 to i64
  %21 = zext nneg i32 %2 to i64
  %wide.trip.count = sext i32 %4 to i64
  br label %28

._crit_edge.loopexit:                             ; preds = %28
  %22 = fmul double %73, 0x402921FB54442D18
  %23 = fmul double %96, 0x402921FB54442D18
  br label %._crit_edge

._crit_edge:                                      ; preds = %._crit_edge.loopexit, %7
  %.075.lcssa = phi double [ 0.000000e+00, %7 ], [ %23, %._crit_edge.loopexit ]
  %.0.lcssa = phi double [ 0.000000e+00, %7 ], [ %22, %._crit_edge.loopexit ]
  %24 = icmp eq i32 %2, 0
  %25 = select i1 %24, double 6.000000e+00, double 1.200000e+01
  %26 = fmul double %25, %.0.lcssa
  store double %26, ptr %5, align 8, !tbaa !248
  %27 = fmul double %25, %.075.lcssa
  store double %27, ptr %6, align 8, !tbaa !248
  ret void

28:                                               ; preds = %.lr.ph, %28
  %indvars.iv = phi i64 [ %20, %.lr.ph ], [ %indvars.iv.next, %28 ]
  %.079 = phi double [ 0.000000e+00, %.lr.ph ], [ %73, %28 ]
  %.07578 = phi double [ 0.000000e+00, %.lr.ph ], [ %96, %28 ]
  %29 = trunc nsw i64 %indvars.iv to i32
  %30 = sitofp i32 %29 to double
  %31 = fmul double %9, %30
  %32 = fmul double %13, %31
  %33 = fmul double %9, %31
  %34 = fmul double %31, %33
  %35 = fmul double %14, %31
  %36 = fmul double %15, %31
  %37 = fmul double %31, %36
  %38 = fmul double %31, %31
  %39 = fmul double %31, %38
  %40 = shl nsw i64 %indvars.iv, 3
  %41 = or disjoint i64 %40, %21
  %42 = getelementptr inbounds float, ptr %0, i64 %41
  %43 = load float, ptr %42, align 4, !tbaa !159
  %44 = fpext float %43 to double
  %45 = getelementptr i8, ptr %42, i64 4
  %46 = load float, ptr %45, align 4, !tbaa !159
  %47 = fpext float %46 to double
  %48 = getelementptr i8, ptr %42, i64 8
  %49 = load float, ptr %48, align 4, !tbaa !159
  %50 = fpext float %49 to double
  %51 = getelementptr i8, ptr %42, i64 12
  %52 = load float, ptr %51, align 4, !tbaa !159
  %53 = fpext float %52 to double
  %54 = fmul double %32, 5.000000e-01
  %55 = fadd double %16, %54
  %56 = fadd double %34, %55
  %57 = fdiv double %32, 3.000000e+00
  %58 = fadd double %17, %57
  %59 = fmul double %34, 5.000000e-01
  %60 = fadd double %58, %59
  %61 = fmul double %60, %47
  %62 = tail call double @llvm.fmuladd.f64(double %44, double %56, double %61)
  %63 = fmul double %32, 2.500000e-01
  %64 = fadd double %18, %63
  %65 = fdiv double %34, 3.000000e+00
  %66 = fadd double %64, %65
  %67 = tail call double @llvm.fmuladd.f64(double %50, double %66, double %62)
  %68 = fdiv double %32, 5.000000e+00
  %69 = fadd double %19, %68
  %70 = fmul double %34, 2.500000e-01
  %71 = fadd double %69, %70
  %72 = tail call double @llvm.fmuladd.f64(double %53, double %71, double %67)
  %73 = fadd double %.079, %72
  %74 = fdiv double %35, 3.000000e+00
  %75 = fadd double %17, %74
  %76 = fmul double %37, 5.000000e-01
  %77 = fadd double %75, %76
  %78 = fadd double %39, %77
  %79 = fmul double %50, 2.000000e+00
  %80 = fmul double %35, 2.500000e-01
  %81 = fadd double %18, %80
  %82 = fdiv double %37, 3.000000e+00
  %83 = fadd double %81, %82
  %84 = fmul double %39, 5.000000e-01
  %85 = fadd double %84, %83
  %86 = fmul double %85, %79
  %87 = tail call double @llvm.fmuladd.f64(double %47, double %78, double %86)
  %88 = fmul double %53, 3.000000e+00
  %89 = fdiv double %35, 5.000000e+00
  %90 = fadd double %19, %89
  %91 = fmul double %37, 2.500000e-01
  %92 = fadd double %90, %91
  %93 = fdiv double %39, 3.000000e+00
  %94 = fadd double %93, %92
  %95 = tail call double @llvm.fmuladd.f64(double %88, double %94, double %87)
  %96 = fadd double %.07578, %95
  %indvars.iv.next = add nsw i64 %indvars.iv, 1
  %exitcond.not = icmp eq i64 %indvars.iv.next, %wide.trip.count
  br i1 %exitcond.not, label %._crit_edge.loopexit, label %28, !llvm.loop !253
}